; Function Attrs: nounwind uwtable
define dso_local i64 @uuid_recv(ptr noundef readonly captures(none) %0) local_unnamed_addr #0 {
  %2 = getelementptr inbounds nuw i8, ptr %0, i64 32
  %3 = load i64, ptr %2, align 8
  %4 = inttoptr i64 %3 to ptr
  %5 = tail call ptr @palloc(i64 noundef 16) #15
  %6 = tail call ptr @pq_getmsgbytes(ptr noundef %4, i32 noundef 16) #15
  tail call void @llvm.memcpy.p0.p0.i64(ptr noundef nonnull align 1 dereferenceable(16) %5, ptr noundef nonnull align 1 dereferenceable(16) %6, i64 16, i1 false)
  %7 = ptrtoint ptr %5 to i64
  ret i64 %7
}